target datalayout = "e-m:e-p270:32:32-p271:32:32-p272:64:64-i64:64-i128:128-f80:128-n8:16:32:64-S128"
target triple = "x86_64-pc-linux-gnu"

%struct.AVFilterContext = type { ptr, ptr, ptr, ptr, ptr, i32, ptr, ptr, i32, ptr, ptr, i32, i32, ptr, ptr, ptr, ptr, i32, ptr, i32, i32 }
%struct.ShufflePixelsContext = type { ptr, i32, i32, i32, i32, i64, i32, i32, [4 x i32], [4 x i32], [4 x i32], i32, ptr, ptr, %struct.AVLFG, ptr }
%struct.AVLFG = type { [64 x i32], i32 }
%struct.ThreadData = type { ptr, ptr }
%struct.AVChannelLayout = type { i32, i32, %union.anon.1, ptr }
%union.anon.1 = type { i64 }
%struct.AVRational = type { i32, i32 }
%struct.AVFrame = type { [8 x ptr], [8 x i32], ptr, i32, i32, i32, i32, i32, %struct.AVRational, i64, i64, %struct.AVRational, i32, ptr, i32, i32, [8 x ptr], ptr, i32, ptr, i32, i32, i32, i32, i32, i32, i32, i64, ptr, i32, ptr, ptr, i64, i64, i64, i64, ptr, %struct.AVChannelLayout, i64 }

; Function Attrs: nounwind uwtable
define internal i32 @shuffle_vertical8(ptr noundef %0, ptr noundef %1, i32 noundef %2, i32 noundef %3) #1 {
  %5 = alloca ptr, align 8
  %6 = alloca ptr, align 8
  %7 = alloca i32, align 4
  %8 = alloca i32, align 4
  %9 = alloca ptr, align 8
  %10 = alloca ptr, align 8
  %11 = alloca ptr, align 8
  %12 = alloca ptr, align 8
  %13 = alloca i32, align 4
  %14 = alloca i32, align 4
  %15 = alloca i32, align 4
  %16 = alloca i32, align 4
  %17 = alloca ptr, align 8
  %18 = alloca ptr, align 8
  %19 = alloca i32, align 4
  %20 = alloca ptr, align 8
  store ptr %0, ptr %5, align 8, !tbaa !4
  store ptr %1, ptr %6, align 8, !tbaa !73
  store i32 %2, ptr %7, align 4, !tbaa !44
  store i32 %3, ptr %8, align 4, !tbaa !44
  call void @llvm.lifetime.start.p0(i64 8, ptr %9) #9
  %21 = load ptr, ptr %5, align 8, !tbaa !4
  %22 = getelementptr inbounds nuw %struct.AVFilterContext, ptr %21, i32 0, i32 9
  %23 = load ptr, ptr %22, align 8, !tbaa !9
  store ptr %23, ptr %9, align 8, !tbaa !22
  call void @llvm.lifetime.start.p0(i64 8, ptr %10) #9
  %24 = load ptr, ptr %6, align 8, !tbaa !73
  store ptr %24, ptr %10, align 8, !tbaa !74
  call void @llvm.lifetime.start.p0(i64 8, ptr %11) #9
  %25 = load ptr, ptr %10, align 8, !tbaa !74
  %26 = getelementptr inbounds nuw %struct.ThreadData, ptr %25, i32 0, i32 0
  %27 = load ptr, ptr %26, align 8, !tbaa !47
  store ptr %27, ptr %11, align 8, !tbaa !26
  call void @llvm.lifetime.start.p0(i64 8, ptr %12) #9
  %28 = load ptr, ptr %10, align 8, !tbaa !74
  %29 = getelementptr inbounds nuw %struct.ThreadData, ptr %28, i32 0, i32 1
  %30 = load ptr, ptr %29, align 8, !tbaa !45
  store ptr %30, ptr %12, align 8, !tbaa !26
  call void @llvm.lifetime.start.p0(i64 4, ptr %13) #9
  store i32 0, ptr %13, align 4, !tbaa !44
  br label %31

31:                                               ; preds = %129, %4
  %32 = load i32, ptr %13, align 4, !tbaa !44
  %33 = load ptr, ptr %9, align 8, !tbaa !22
  %34 = getelementptr inbounds nuw %struct.ShufflePixelsContext, ptr %33, i32 0, i32 7
  %35 = load i32, ptr %34, align 4, !tbaa !58
  %36 = icmp slt i32 %32, %35
  br i1 %36, label %38, label %37

37:                                               ; preds = %31
  store i32 2, ptr %14, align 4
  call void @llvm.lifetime.end.p0(i64 4, ptr %13) #9
  br label %132

38:                                               ; preds = %31
  call void @llvm.lifetime.start.p0(i64 4, ptr %15) #9
  %39 = load ptr, ptr %9, align 8, !tbaa !22
  %40 = getelementptr inbounds nuw %struct.ShufflePixelsContext, ptr %39, i32 0, i32 10
  %41 = load i32, ptr %13, align 4, !tbaa !44
  %42 = sext i32 %41 to i64
  %43 = getelementptr inbounds [4 x i32], ptr %40, i64 0, i64 %42
  %44 = load i32, ptr %43, align 4, !tbaa !44
  %45 = load i32, ptr %7, align 4, !tbaa !44
  %46 = mul nsw i32 %44, %45
  %47 = load i32, ptr %8, align 4, !tbaa !44
  %48 = sdiv i32 %46, %47
  store i32 %48, ptr %15, align 4, !tbaa !44
  call void @llvm.lifetime.start.p0(i64 4, ptr %16) #9
  %49 = load ptr, ptr %9, align 8, !tbaa !22
  %50 = getelementptr inbounds nuw %struct.ShufflePixelsContext, ptr %49, i32 0, i32 10
  %51 = load i32, ptr %13, align 4, !tbaa !44
  %52 = sext i32 %51 to i64
  %53 = getelementptr inbounds [4 x i32], ptr %50, i64 0, i64 %52
  %54 = load i32, ptr %53, align 4, !tbaa !44
  %55 = load i32, ptr %7, align 4, !tbaa !44
  %56 = add nsw i32 %55, 1
  %57 = mul nsw i32 %54, %56
  %58 = load i32, ptr %8, align 4, !tbaa !44
  %59 = sdiv i32 %57, %58
  store i32 %59, ptr %16, align 4, !tbaa !44
  call void @llvm.lifetime.start.p0(i64 8, ptr %17) #9
  %60 = load ptr, ptr %12, align 8, !tbaa !26
  %61 = getelementptr inbounds nuw %struct.AVFrame, ptr %60, i32 0, i32 0
  %62 = load i32, ptr %13, align 4, !tbaa !44
  %63 = sext i32 %62 to i64
  %64 = getelementptr inbounds [8 x ptr], ptr %61, i64 0, i64 %63
  %65 = load ptr, ptr %64, align 8, !tbaa !76
  %66 = load i32, ptr %15, align 4, !tbaa !44
  %67 = load ptr, ptr %12, align 8, !tbaa !26
  %68 = getelementptr inbounds nuw %struct.AVFrame, ptr %67, i32 0, i32 1
  %69 = load i32, ptr %13, align 4, !tbaa !44
  %70 = sext i32 %69 to i64
  %71 = getelementptr inbounds [8 x i32], ptr %68, i64 0, i64 %70
  %72 = load i32, ptr %71, align 4, !tbaa !44
  %73 = mul nsw i32 %66, %72
  %74 = sext i32 %73 to i64
  %75 = getelementptr inbounds i8, ptr %65, i64 %74
  store ptr %75, ptr %17, align 8, !tbaa !76
  call void @llvm.lifetime.start.p0(i64 8, ptr %18) #9
  %76 = load ptr, ptr %9, align 8, !tbaa !22
  %77 = getelementptr inbounds nuw %struct.ShufflePixelsContext, ptr %76, i32 0, i32 13
  %78 = load ptr, ptr %77, align 8, !tbaa !67
  store ptr %78, ptr %18, align 8, !tbaa !77
  call void @llvm.lifetime.start.p0(i64 4, ptr %19) #9
  %79 = load i32, ptr %15, align 4, !tbaa !44
  store i32 %79, ptr %19, align 4, !tbaa !44
  br label %80

80:                                               ; preds = %125, %38
  %81 = load i32, ptr %19, align 4, !tbaa !44
  %82 = load i32, ptr %16, align 4, !tbaa !44
  %83 = icmp slt i32 %81, %82
  br i1 %83, label %85, label %84

84:                                               ; preds = %80
  store i32 5, ptr %14, align 4
  call void @llvm.lifetime.end.p0(i64 4, ptr %19) #9
  br label %128

85:                                               ; preds = %80
  call void @llvm.lifetime.start.p0(i64 8, ptr %20) #9
  %86 = load ptr, ptr %11, align 8, !tbaa !26
  %87 = getelementptr inbounds nuw %struct.AVFrame, ptr %86, i32 0, i32 0
  %88 = load i32, ptr %13, align 4, !tbaa !44
  %89 = sext i32 %88 to i64
  %90 = getelementptr inbounds [8 x ptr], ptr %87, i64 0, i64 %89
  %91 = load ptr, ptr %90, align 8, !tbaa !76
  %92 = load ptr, ptr %18, align 8, !tbaa !77
  %93 = load i32, ptr %19, align 4, !tbaa !44
  %94 = sext i32 %93 to i64
  %95 = getelementptr inbounds i32, ptr %92, i64 %94
  %96 = load i32, ptr %95, align 4, !tbaa !44
  %97 = load ptr, ptr %11, align 8, !tbaa !26
  %98 = getelementptr inbounds nuw %struct.AVFrame, ptr %97, i32 0, i32 1
  %99 = load i32, ptr %13, align 4, !tbaa !44
  %100 = sext i32 %99 to i64
  %101 = getelementptr inbounds [8 x i32], ptr %98, i64 0, i64 %100
  %102 = load i32, ptr %101, align 4, !tbaa !44
  %103 = mul nsw i32 %96, %102
  %104 = sext i32 %103 to i64
  %105 = getelementptr inbounds i8, ptr %91, i64 %104
  store ptr %105, ptr %20, align 8, !tbaa !76
  %106 = load ptr, ptr %17, align 8, !tbaa !76
  %107 = load ptr, ptr %20, align 8, !tbaa !76
  %108 = load ptr, ptr %9, align 8, !tbaa !22
  %109 = getelementptr inbounds nuw %struct.ShufflePixelsContext, ptr %108, i32 0, i32 8
  %110 = load i32, ptr %13, align 4, !tbaa !44
  %111 = sext i32 %110 to i64
  %112 = getelementptr inbounds [4 x i32], ptr %109, i64 0, i64 %111
  %113 = load i32, ptr %112, align 4, !tbaa !44
  %114 = sext i32 %113 to i64
  call void @llvm.memcpy.p0.p0.i64(ptr align 1 %106, ptr align 1 %107, i64 %114, i1 false)
  %115 = load ptr, ptr %12, align 8, !tbaa !26
  %116 = getelementptr inbounds nuw %struct.AVFrame, ptr %115, i32 0, i32 1
  %117 = load i32, ptr %13, align 4, !tbaa !44
  %118 = sext i32 %117 to i64
  %119 = getelementptr inbounds [8 x i32], ptr %116, i64 0, i64 %118
  %120 = load i32, ptr %119, align 4, !tbaa !44
  %121 = sext i32 %120 to i64
  %122 = udiv i64 %121, 1
  %123 = load ptr, ptr %17, align 8, !tbaa !76
  %124 = getelementptr inbounds nuw i8, ptr %123, i64 %122
  store ptr %124, ptr %17, align 8, !tbaa !76
  call void @llvm.lifetime.end.p0(i64 8, ptr %20) #9
  br label %125

125:                                              ; preds = %85
  %126 = load i32, ptr %19, align 4, !tbaa !44
  %127 = add nsw i32 %126, 1
  store i32 %127, ptr %19, align 4, !tbaa !44
  br label %80, !llvm.loop !90

128:                                              ; preds = %84
  call void @llvm.lifetime.end.p0(i64 8, ptr %18) #9
  call void @llvm.lifetime.end.p0(i64 8, ptr %17) #9
  call void @llvm.lifetime.end.p0(i64 4, ptr %16) #9
  call void @llvm.lifetime.end.p0(i64 4, ptr %15) #9
  br label %129

129:                                              ; preds = %128
  %130 = load i32, ptr %13, align 4, !tbaa !44
  %131 = add nsw i32 %130, 1
  store i32 %131, ptr %13, align 4, !tbaa !44
  br label %31, !llvm.loop !91

132:                                              ; preds = %37
  store i32 1, ptr %14, align 4
  call void @llvm.lifetime.end.p0(i64 8, ptr %12) #9
  call void @llvm.lifetime.end.p0(i64 8, ptr %11) #9
  call void @llvm.lifetime.end.p0(i64 8, ptr %10) #9
  call void @llvm.lifetime.end.p0(i64 8, ptr %9) #9
  ret i32 0
}