; Function Attrs: nofree norecurse nosync nounwind memory(readwrite, inaccessiblemem: none) uwtable
define internal noundef i32 @shuffle_vertical8(ptr noundef readonly captures(none) %0, ptr noundef readonly captures(none) %1, i32 noundef %2, i32 noundef %3) #5 {
  %5 = getelementptr inbounds nuw i8, ptr %0, i64 72
  %6 = load ptr, ptr %5, align 8, !tbaa !4
  %7 = load ptr, ptr %1, align 8, !tbaa !43
  %8 = getelementptr inbounds nuw i8, ptr %1, i64 8
  %9 = load ptr, ptr %8, align 8, !tbaa !41
  %10 = getelementptr inbounds nuw i8, ptr %6, i64 36
  %11 = load i32, ptr %10, align 4, !tbaa !53
  %12 = icmp sgt i32 %11, 0
  br i1 %12, label %.lr.ph43, label %._crit_edge44

.lr.ph43:                                         ; preds = %4
  %13 = getelementptr inbounds nuw i8, ptr %6, i64 72
  %14 = add nsw i32 %2, 1
  %15 = getelementptr inbounds nuw i8, ptr %9, i64 64
  %16 = getelementptr inbounds nuw i8, ptr %6, i64 104
  %17 = getelementptr inbounds nuw i8, ptr %7, i64 64
  %18 = getelementptr inbounds nuw i8, ptr %6, i64 40
  br label %19

._crit_edge44:                                    ; preds = %._crit_edge, %4
  ret i32 0

19:                                               ; preds = %.lr.ph43, %._crit_edge
  %20 = phi i32 [ %11, %.lr.ph43 ], [ %40, %._crit_edge ]
  %indvars.iv46 = phi i64 [ 0, %.lr.ph43 ], [ %indvars.iv.next47, %._crit_edge ]
  %21 = getelementptr inbounds nuw [4 x i32], ptr %13, i64 0, i64 %indvars.iv46
  %22 = load i32, ptr %21, align 4, !tbaa !48
  %23 = mul nsw i32 %22, %2
  %24 = sdiv i32 %23, %3
  %25 = mul nsw i32 %22, %14
  %26 = sdiv i32 %25, %3
  %27 = getelementptr inbounds nuw [8 x i32], ptr %15, i64 0, i64 %indvars.iv46
  %28 = load ptr, ptr %16, align 8, !tbaa !62
  %29 = icmp slt i32 %24, %26
  br i1 %29, label %.lr.ph, label %._crit_edge

.lr.ph:                                           ; preds = %19
  %30 = getelementptr inbounds nuw [8 x ptr], ptr %9, i64 0, i64 %indvars.iv46
  %31 = load ptr, ptr %30, align 8, !tbaa !84
  %32 = load i32, ptr %27, align 4, !tbaa !48
  %33 = mul nsw i32 %32, %24
  %34 = sext i32 %33 to i64
  %35 = getelementptr inbounds i8, ptr %31, i64 %34
  %36 = getelementptr inbounds nuw [8 x ptr], ptr %7, i64 0, i64 %indvars.iv46
  %37 = getelementptr inbounds nuw [8 x i32], ptr %17, i64 0, i64 %indvars.iv46
  %38 = getelementptr inbounds nuw [4 x i32], ptr %18, i64 0, i64 %indvars.iv46
  %39 = sext i32 %24 to i64
  %wide.trip.count = sext i32 %26 to i64
  br label %43

._crit_edge.loopexit:                             ; preds = %43
  %.pre = load i32, ptr %10, align 4, !tbaa !53
  br label %._crit_edge

._crit_edge:                                      ; preds = %._crit_edge.loopexit, %19
  %40 = phi i32 [ %.pre, %._crit_edge.loopexit ], [ %20, %19 ]
  %indvars.iv.next47 = add nuw nsw i64 %indvars.iv46, 1
  %41 = sext i32 %40 to i64
  %42 = icmp slt i64 %indvars.iv.next47, %41
  br i1 %42, label %19, label %._crit_edge44, !llvm.loop !93

43:                                               ; preds = %.lr.ph, %43
  %indvars.iv = phi i64 [ %39, %.lr.ph ], [ %indvars.iv.next, %43 ]
  %.03839 = phi ptr [ %35, %.lr.ph ], [ %55, %43 ]
  %44 = load ptr, ptr %36, align 8, !tbaa !84
  %45 = getelementptr inbounds i32, ptr %28, i64 %indvars.iv
  %46 = load i32, ptr %45, align 4, !tbaa !48
  %47 = load i32, ptr %37, align 4, !tbaa !48
  %48 = mul nsw i32 %47, %46
  %49 = sext i32 %48 to i64
  %50 = getelementptr inbounds i8, ptr %44, i64 %49
  %51 = load i32, ptr %38, align 4, !tbaa !48
  %52 = sext i32 %51 to i64
  tail call void @llvm.memcpy.p0.p0.i64(ptr align 1 %.03839, ptr align 1 %50, i64 %52, i1 false)
  %53 = load i32, ptr %27, align 4, !tbaa !48
  %54 = sext i32 %53 to i64
  %55 = getelementptr inbounds nuw i8, ptr %.03839, i64 %54
  %indvars.iv.next = add nsw i64 %indvars.iv, 1
  %exitcond.not = icmp eq i64 %indvars.iv.next, %wide.trip.count
  br i1 %exitcond.not, label %._crit_edge.loopexit, label %43, !llvm.loop !94
}